target datalayout = "e-m:e-p270:32:32-p271:32:32-p272:64:64-i64:64-i128:128-f80:128-n8:16:32:64-S128"
target triple = "x86_64-pc-linux-gnu"

; Function Attrs: mustprogress uwtable
define internal noundef i32 @_ZL13rsa_sign_wrapPv17mbedtls_md_type_tPKhmPhmPmPFiS_S3_mES_(ptr noundef %0, i32 noundef %1, ptr noundef %2, i64 noundef %3, ptr noundef %4, i64 noundef %5, ptr noundef %6, ptr noundef %7, ptr noundef %8) #0 {
  %10 = alloca i32, align 4
  %11 = alloca ptr, align 8
  %12 = alloca i32, align 4
  %13 = alloca ptr, align 8
  %14 = alloca i64, align 8
  %15 = alloca ptr, align 8
  %16 = alloca i64, align 8
  %17 = alloca ptr, align 8
  %18 = alloca ptr, align 8
  %19 = alloca ptr, align 8
  %20 = alloca ptr, align 8
  %21 = alloca i32, align 4
  store ptr %0, ptr %11, align 8, !tbaa !3
  store i32 %1, ptr %12, align 4, !tbaa !11
  store ptr %2, ptr %13, align 8, !tbaa !13
  store i64 %3, ptr %14, align 8, !tbaa !15
  store ptr %4, ptr %15, align 8, !tbaa !13
  store i64 %5, ptr %16, align 8, !tbaa !15
  store ptr %6, ptr %17, align 8, !tbaa !19
  store ptr %7, ptr %18, align 8, !tbaa !3
  store ptr %8, ptr %19, align 8, !tbaa !3
  call void @llvm.lifetime.start.p0(i64 8, ptr %20) #6
  %22 = load ptr, ptr %11, align 8, !tbaa !3
  store ptr %22, ptr %20, align 8, !tbaa !7
  %23 = load i32, ptr %12, align 4, !tbaa !11
  %24 = icmp eq i32 %23, 0
  br i1 %24, label %25, label %29

25:                                               ; preds = %9
  %26 = load i64, ptr %14, align 8, !tbaa !15
  %27 = icmp ult i64 4294967295, %26
  br i1 %27, label %28, label %29

28:                                               ; preds = %25
  store i32 -16000, ptr %10, align 4
  store i32 1, ptr %21, align 4
  br label %48

29:                                               ; preds = %25, %9
  %30 = load ptr, ptr %20, align 8, !tbaa !7
  %31 = call i64 @mbedtls_rsa_get_len(ptr noundef %30)
  %32 = load ptr, ptr %17, align 8, !tbaa !19
  store i64 %31, ptr %32, align 8, !tbaa !15
  %33 = load i64, ptr %16, align 8, !tbaa !15
  %34 = load ptr, ptr %17, align 8, !tbaa !19
  %35 = load i64, ptr %34, align 8, !tbaa !15
  %36 = icmp ult i64 %33, %35
  br i1 %36, label %37, label %38

37:                                               ; preds = %29
  store i32 -14464, ptr %10, align 4
  store i32 1, ptr %21, align 4
  br label %48

38:                                               ; preds = %29
  %39 = load ptr, ptr %20, align 8, !tbaa !7
  %40 = load ptr, ptr %18, align 8, !tbaa !3
  %41 = load ptr, ptr %19, align 8, !tbaa !3
  %42 = load i32, ptr %12, align 4, !tbaa !11
  %43 = load i64, ptr %14, align 8, !tbaa !15
  %44 = trunc i64 %43 to i32
  %45 = load ptr, ptr %13, align 8, !tbaa !13
  %46 = load ptr, ptr %15, align 8, !tbaa !13
  %47 = call i32 @mbedtls_rsa_pkcs1_sign(ptr noundef %39, ptr noundef %40, ptr noundef %41, i32 noundef %42, i32 noundef %44, ptr noundef %45, ptr noundef %46)
  store i32 %47, ptr %10, align 4
  store i32 1, ptr %21, align 4
  br label %48

48:                                               ; preds = %38, %37, %28
  call void @llvm.lifetime.end.p0(i64 8, ptr %20) #6
  %49 = load i32, ptr %10, align 4
  ret i32 %49
}