; Function Attrs: mustprogress uwtable
define internal noundef i32 @_ZL13rsa_sign_wrapPv17mbedtls_md_type_tPKhmPhmPmPFiS_S3_mES_(ptr noundef %0, i32 noundef %1, ptr noundef %2, i64 noundef %3, ptr noundef %4, i64 noundef %5, ptr noundef writeonly captures(none) %6, ptr noundef %7, ptr noundef %8) #0 {
  %10 = icmp eq i32 %1, 0
  %11 = icmp ugt i64 %3, 4294967295
  %or.cond = and i1 %10, %11
  br i1 %or.cond, label %18, label %12

12:                                               ; preds = %9
  %13 = tail call i64 @mbedtls_rsa_get_len(ptr noundef %0)
  store i64 %13, ptr %6, align 8, !tbaa !3
  %14 = icmp ult i64 %5, %13
  br i1 %14, label %18, label %15

15:                                               ; preds = %12
  %16 = trunc i64 %3 to i32
  %17 = tail call i32 @mbedtls_rsa_pkcs1_sign(ptr noundef %0, ptr noundef %7, ptr noundef %8, i32 noundef %1, i32 noundef %16, ptr noundef %2, ptr noundef %4)
  br label %18

18:                                               ; preds = %12, %9, %15
  %.0 = phi i32 [ %17, %15 ], [ -16000, %9 ], [ -14464, %12 ]
  ret i32 %.0
}